target datalayout = "e-m:e-p270:32:32-p271:32:32-p272:64:64-i64:64-i128:128-f80:128-n8:16:32:64-S128"
target triple = "x86_64-pc-linux-gnu"

%"class.llvm::PointerIntPair.337" = type { %"struct.llvm::detail::PunnedPointer.338" }
%"struct.llvm::detail::PunnedPointer.338" = type { [8 x i8] }
%"class.llvm::PointerUnion" = type { %"class.llvm::pointer_union_detail::PointerUnionMembers" }
%"class.llvm::pointer_union_detail::PointerUnionMembers" = type { %"class.llvm::pointer_union_detail::PointerUnionMembers.339" }
%"class.llvm::pointer_union_detail::PointerUnionMembers.339" = type { %"class.llvm::pointer_union_detail::PointerUnionMembers.340" }
%"class.llvm::pointer_union_detail::PointerUnionMembers.340" = type { %"class.llvm::PointerIntPair.341" }
%"class.llvm::PointerIntPair.341" = type { %"struct.llvm::detail::PunnedPointer.342" }
%"struct.llvm::detail::PunnedPointer.342" = type { [8 x i8] }
%"class.clang::SourceLocation" = type { i32 }
%"class.clang::DeclContext" = type { ptr, %union.anon.347, ptr, ptr }
%union.anon.347 = type { %"class.clang::DeclContext::RecordDeclBitfields" }
%"class.clang::DeclContext::RecordDeclBitfields" = type { i64 }
%"class.clang::Decl" = type <{ ptr, %"class.llvm::PointerIntPair.337", %"class.llvm::PointerUnion", %"class.clang::SourceLocation", i32, i8, [7 x i8] }>
%"struct.clang::Decl::MultipleDC" = type { ptr, ptr }

; Function Attrs: mustprogress nounwind uwtable
define linkonce_odr hidden noundef ptr @_ZN4llvm20pointer_union_detail22PointerUnionUIntTraitsIJPN5clang11DeclContextEPNS2_4Decl10MultipleDCEEE18getFromVoidPointerEPv(ptr noundef %0) #0 comdat align 2 {
  %2 = alloca ptr, align 8
  store ptr %0, ptr %2, align 8
  %3 = load ptr, ptr %2, align 8
  ret ptr %3
}

; Function Attrs: mustprogress nounwind uwtable
define linkonce_odr hidden noundef i64 @_ZNK4llvm6detail13PunnedPointerIPvE5asIntEv(ptr noundef nonnull align 8 dereferenceable(8) %0) #0 comdat align 2 {
  %2 = alloca ptr, align 8
  %3 = alloca i64, align 8
  store ptr %0, ptr %2, align 8
  %4 = load ptr, ptr %2, align 8
  store i64 0, ptr %3, align 8
  %5 = getelementptr inbounds nuw %"struct.llvm::detail::PunnedPointer.342", ptr %4, i32 0, i32 0
  %6 = getelementptr inbounds [8 x i8], ptr %5, i64 0, i64 0
  call void @llvm.memcpy.p0.p0.i64(ptr align 8 %3, ptr align 8 %6, i64 8, i1 false)
  %7 = load i64, ptr %3, align 8
  ret i64 %7
}

; Function Attrs: mustprogress nounwind uwtable
define linkonce_odr hidden noundef ptr @_ZN4llvm18PointerIntPairInfoIPvLj1ENS_20pointer_union_detail22PointerUnionUIntTraitsIJPN5clang11DeclContextEPNS4_4Decl10MultipleDCEEEEE10getPointerEl(i64 noundef %0) #0 comdat align 2 {
  %2 = alloca i64, align 8
  store i64 %0, ptr %2, align 8
  %3 = load i64, ptr %2, align 8
  %4 = and i64 %3, -8
  %5 = inttoptr i64 %4 to ptr
  %6 = call noundef ptr @_ZN4llvm20pointer_union_detail22PointerUnionUIntTraitsIJPN5clang11DeclContextEPNS2_4Decl10MultipleDCEEE18getFromVoidPointerEPv(ptr noundef %5)
  ret ptr %6
}

; Function Attrs: mustprogress nounwind uwtable
define linkonce_odr hidden noundef i64 @_ZN4llvm18PointerIntPairInfoIPvLj1ENS_20pointer_union_detail22PointerUnionUIntTraitsIJPN5clang11DeclContextEPNS4_4Decl10MultipleDCEEEEE6getIntEl(i64 noundef %0) #0 comdat align 2 {
  %2 = alloca i64, align 8
  store i64 %0, ptr %2, align 8
  %3 = load i64, ptr %2, align 8
  %4 = ashr i64 %3, 2
  %5 = and i64 %4, 1
  ret i64 %5
}

; Function Attrs: mustprogress nounwind uwtable
define linkonce_odr hidden noundef i64 @_ZNK4llvm6detail13PunnedPointerIPvEcvlEv(ptr noundef nonnull align 8 dereferenceable(8) %0) #0 comdat align 2 {
  %2 = alloca ptr, align 8
  store ptr %0, ptr %2, align 8
  %3 = load ptr, ptr %2, align 8
  %4 = call noundef i64 @_ZNK4llvm6detail13PunnedPointerIPvE5asIntEv(ptr noundef nonnull align 8 dereferenceable(8) %3)
  ret i64 %4
}

; Function Attrs: mustprogress nounwind uwtable
define linkonce_odr hidden noundef ptr @_ZN4llvm21PointerLikeTypeTraitsIPN5clang4Decl10MultipleDCEE18getFromVoidPointerEPv(ptr noundef %0) #0 comdat align 2 {
  %2 = alloca ptr, align 8
  store ptr %0, ptr %2, align 8
  %3 = load ptr, ptr %2, align 8
  ret ptr %3
}

; Function Attrs: mustprogress nounwind uwtable
define linkonce_odr hidden noundef ptr @_ZN4llvm21PointerLikeTypeTraitsIPN5clang11DeclContextEE18getFromVoidPointerEPv(ptr noundef %0) #0 comdat align 2 {
  %2 = alloca ptr, align 8
  store ptr %0, ptr %2, align 8
  %3 = load ptr, ptr %2, align 8
  ret ptr %3
}

; Function Attrs: mustprogress nounwind uwtable
define linkonce_odr hidden noundef ptr @_ZNK4llvm14PointerIntPairIPvLj1EiNS_20pointer_union_detail22PointerUnionUIntTraitsIJPN5clang11DeclContextEPNS4_4Decl10MultipleDCEEEENS_18PointerIntPairInfoIS1_Lj1ESA_EEE10getPointerEv(ptr noundef nonnull align 8 dereferenceable(8) %0) #0 comdat align 2 {
  %2 = alloca ptr, align 8
  store ptr %0, ptr %2, align 8
  %3 = load ptr, ptr %2, align 8
  %4 = getelementptr inbounds nuw %"class.llvm::PointerIntPair.341", ptr %3, i32 0, i32 0
  %5 = call noundef i64 @_ZNK4llvm6detail13PunnedPointerIPvEcvlEv(ptr noundef nonnull align 8 dereferenceable(8) %4)
  %6 = call noundef ptr @_ZN4llvm18PointerIntPairInfoIPvLj1ENS_20pointer_union_detail22PointerUnionUIntTraitsIJPN5clang11DeclContextEPNS4_4Decl10MultipleDCEEEEE10getPointerEl(i64 noundef %5)
  ret ptr %6
}

; Function Attrs: mustprogress nounwind uwtable
define linkonce_odr hidden noundef i32 @_ZNK4llvm14PointerIntPairIPvLj1EiNS_20pointer_union_detail22PointerUnionUIntTraitsIJPN5clang11DeclContextEPNS4_4Decl10MultipleDCEEEENS_18PointerIntPairInfoIS1_Lj1ESA_EEE6getIntEv(ptr noundef nonnull align 8 dereferenceable(8) %0) #0 comdat align 2 {
  %2 = alloca ptr, align 8
  store ptr %0, ptr %2, align 8
  %3 = load ptr, ptr %2, align 8
  %4 = getelementptr inbounds nuw %"class.llvm::PointerIntPair.341", ptr %3, i32 0, i32 0
  %5 = call noundef i64 @_ZNK4llvm6detail13PunnedPointerIPvEcvlEv(ptr noundef nonnull align 8 dereferenceable(8) %4)
  %6 = call noundef i64 @_ZN4llvm18PointerIntPairInfoIPvLj1ENS_20pointer_union_detail22PointerUnionUIntTraitsIJPN5clang11DeclContextEPNS4_4Decl10MultipleDCEEEEE6getIntEl(i64 noundef %5)
  %7 = trunc i64 %6 to i32
  ret i32 %7
}

; Function Attrs: mustprogress nounwind uwtable
define linkonce_odr hidden noundef ptr @_ZN4llvm24CastInfoPointerUnionImplIJPN5clang11DeclContextEPNS1_4Decl10MultipleDCEEE6doCastIS6_EET_RNS_12PointerUnionIJS3_S6_EEE(ptr noundef nonnull align 8 dereferenceable(8) %0) #0 comdat align 2 {
  %2 = alloca ptr, align 8
  store ptr %0, ptr %2, align 8
  %3 = load ptr, ptr %2, align 8
  %4 = getelementptr inbounds nuw %"class.llvm::pointer_union_detail::PointerUnionMembers.340", ptr %3, i32 0, i32 0
  %5 = call noundef ptr @_ZNK4llvm14PointerIntPairIPvLj1EiNS_20pointer_union_detail22PointerUnionUIntTraitsIJPN5clang11DeclContextEPNS4_4Decl10MultipleDCEEEENS_18PointerIntPairInfoIS1_Lj1ESA_EEE10getPointerEv(ptr noundef nonnull align 8 dereferenceable(8) %4)
  %6 = call noundef ptr @_ZN4llvm21PointerLikeTypeTraitsIPN5clang4Decl10MultipleDCEE18getFromVoidPointerEPv(ptr noundef %5)
  ret ptr %6
}

; Function Attrs: mustprogress nounwind uwtable
define linkonce_odr hidden noundef ptr @_ZN4llvm24CastInfoPointerUnionImplIJPN5clang11DeclContextEPNS1_4Decl10MultipleDCEEE6doCastIS3_EET_RNS_12PointerUnionIJS3_S6_EEE(ptr noundef nonnull align 8 dereferenceable(8) %0) #0 comdat align 2 {
  %2 = alloca ptr, align 8
  store ptr %0, ptr %2, align 8
  %3 = load ptr, ptr %2, align 8
  %4 = getelementptr inbounds nuw %"class.llvm::pointer_union_detail::PointerUnionMembers.340", ptr %3, i32 0, i32 0
  %5 = call noundef ptr @_ZNK4llvm14PointerIntPairIPvLj1EiNS_20pointer_union_detail22PointerUnionUIntTraitsIJPN5clang11DeclContextEPNS4_4Decl10MultipleDCEEEENS_18PointerIntPairInfoIS1_Lj1ESA_EEE10getPointerEv(ptr noundef nonnull align 8 dereferenceable(8) %4)
  %6 = call noundef ptr @_ZN4llvm21PointerLikeTypeTraitsIPN5clang11DeclContextEE18getFromVoidPointerEPv(ptr noundef %5)
  ret ptr %6
}

; Function Attrs: mustprogress nounwind uwtable
define linkonce_odr hidden noundef zeroext i1 @_ZN4llvm24CastInfoPointerUnionImplIJPN5clang11DeclContextEPNS1_4Decl10MultipleDCEEE10isPossibleIS3_EEbRNS_12PointerUnionIJS3_S6_EEE(ptr noundef nonnull align 8 dereferenceable(8) %0) #0 comdat align 2 {
  %2 = alloca ptr, align 8
  store ptr %0, ptr %2, align 8
  %3 = load ptr, ptr %2, align 8
  %4 = getelementptr inbounds nuw %"class.llvm::pointer_union_detail::PointerUnionMembers.340", ptr %3, i32 0, i32 0
  %5 = call noundef i32 @_ZNK4llvm14PointerIntPairIPvLj1EiNS_20pointer_union_detail22PointerUnionUIntTraitsIJPN5clang11DeclContextEPNS4_4Decl10MultipleDCEEEENS_18PointerIntPairInfoIS1_Lj1ESA_EEE6getIntEv(ptr noundef nonnull align 8 dereferenceable(8) %4)
  %6 = sext i32 %5 to i64
  %7 = icmp eq i64 %6, 0
  ret i1 %7
}

; Function Attrs: mustprogress nounwind uwtable
define linkonce_odr hidden noundef ptr @_ZN4llvm8CastInfoIPN5clang4Decl10MultipleDCENS_12PointerUnionIJPNS1_11DeclContextES4_EEEvE6doCastERS8_(ptr noundef nonnull align 8 dereferenceable(8) %0) #0 comdat align 2 {
  %2 = alloca ptr, align 8
  store ptr %0, ptr %2, align 8
  %3 = load ptr, ptr %2, align 8
  %4 = call noundef ptr @_ZN4llvm24CastInfoPointerUnionImplIJPN5clang11DeclContextEPNS1_4Decl10MultipleDCEEE6doCastIS6_EET_RNS_12PointerUnionIJS3_S6_EEE(ptr noundef nonnull align 8 dereferenceable(8) %3)
  ret ptr %4
}

; Function Attrs: mustprogress nounwind uwtable
define linkonce_odr hidden noundef ptr @_ZN4llvm8CastInfoIPN5clang11DeclContextENS_12PointerUnionIJS3_PNS1_4Decl10MultipleDCEEEEvE6doCastERS8_(ptr noundef nonnull align 8 dereferenceable(8) %0) #0 comdat align 2 {
  %2 = alloca ptr, align 8
  store ptr %0, ptr %2, align 8
  %3 = load ptr, ptr %2, align 8
  %4 = call noundef ptr @_ZN4llvm24CastInfoPointerUnionImplIJPN5clang11DeclContextEPNS1_4Decl10MultipleDCEEE6doCastIS3_EET_RNS_12PointerUnionIJS3_S6_EEE(ptr noundef nonnull align 8 dereferenceable(8) %3)
  ret ptr %4
}

; Function Attrs: mustprogress nounwind uwtable
define linkonce_odr hidden noundef zeroext i1 @_ZN4llvm8CastInfoIPN5clang11DeclContextENS_12PointerUnionIJS3_PNS1_4Decl10MultipleDCEEEEvE10isPossibleERS8_(ptr noundef nonnull align 8 dereferenceable(8) %0) #0 comdat align 2 {
  %2 = alloca ptr, align 8
  store ptr %0, ptr %2, align 8
  %3 = load ptr, ptr %2, align 8
  %4 = call noundef zeroext i1 @_ZN4llvm24CastInfoPointerUnionImplIJPN5clang11DeclContextEPNS1_4Decl10MultipleDCEEE10isPossibleIS3_EEbRNS_12PointerUnionIJS3_S6_EEE(ptr noundef nonnull align 8 dereferenceable(8) %3)
  ret i1 %4
}

; Function Attrs: mustprogress nounwind uwtable
define linkonce_odr hidden noundef ptr @_ZN4llvm28ConstStrippingForwardingCastIPN5clang4Decl10MultipleDCEKNS_12PointerUnionIJPNS1_11DeclContextES4_EEENS_8CastInfoIS4_S8_vEEE6doCastERS9_(ptr noundef nonnull align 8 dereferenceable(8) %0) #0 comdat align 2 {
  %2 = alloca ptr, align 8
  store ptr %0, ptr %2, align 8
  %3 = load ptr, ptr %2, align 8
  %4 = call noundef ptr @_ZN4llvm8CastInfoIPN5clang4Decl10MultipleDCENS_12PointerUnionIJPNS1_11DeclContextES4_EEEvE6doCastERS8_(ptr noundef nonnull align 8 dereferenceable(8) %3)
  ret ptr %4
}

; Function Attrs: mustprogress nounwind uwtable
define linkonce_odr hidden noundef ptr @_ZN4llvm28ConstStrippingForwardingCastIPN5clang11DeclContextEKNS_12PointerUnionIJS3_PNS1_4Decl10MultipleDCEEEENS_8CastInfoIS3_S8_vEEE6doCastERS9_(ptr noundef nonnull align 8 dereferenceable(8) %0) #0 comdat align 2 {
  %2 = alloca ptr, align 8
  store ptr %0, ptr %2, align 8
  %3 = load ptr, ptr %2, align 8
  %4 = call noundef ptr @_ZN4llvm8CastInfoIPN5clang11DeclContextENS_12PointerUnionIJS3_PNS1_4Decl10MultipleDCEEEEvE6doCastERS8_(ptr noundef nonnull align 8 dereferenceable(8) %3)
  ret ptr %4
}

; Function Attrs: mustprogress nounwind uwtable
define linkonce_odr hidden noundef zeroext i1 @_ZN4llvm28ConstStrippingForwardingCastIPN5clang11DeclContextEKNS_12PointerUnionIJS3_PNS1_4Decl10MultipleDCEEEENS_8CastInfoIS3_S8_vEEE10isPossibleERS9_(ptr noundef nonnull align 8 dereferenceable(8) %0) #0 comdat align 2 {
  %2 = alloca ptr, align 8
  store ptr %0, ptr %2, align 8
  %3 = load ptr, ptr %2, align 8
  %4 = call noundef zeroext i1 @_ZN4llvm8CastInfoIPN5clang11DeclContextENS_12PointerUnionIJS3_PNS1_4Decl10MultipleDCEEEEvE10isPossibleERS8_(ptr noundef nonnull align 8 dereferenceable(8) %3)
  ret i1 %4
}

; Function Attrs: mustprogress nounwind uwtable
define linkonce_odr hidden noundef ptr @_ZN4llvm4castIPN5clang4Decl10MultipleDCENS_12PointerUnionIJPNS1_11DeclContextES4_EEEEEDcRKT0_(ptr noundef nonnull align 8 dereferenceable(8) %0) #0 comdat {
  %2 = alloca ptr, align 8
  store ptr %0, ptr %2, align 8
  %3 = load ptr, ptr %2, align 8
  %4 = call noundef ptr @_ZN4llvm28ConstStrippingForwardingCastIPN5clang4Decl10MultipleDCEKNS_12PointerUnionIJPNS1_11DeclContextES4_EEENS_8CastInfoIS4_S8_vEEE6doCastERS9_(ptr noundef nonnull align 8 dereferenceable(8) %3)
  ret ptr %4
}

; Function Attrs: mustprogress nounwind uwtable
define linkonce_odr hidden noundef ptr @_ZN4llvm4castIPN5clang11DeclContextENS_12PointerUnionIJS3_PNS1_4Decl10MultipleDCEEEEEEDcRKT0_(ptr noundef nonnull align 8 dereferenceable(8) %0) #0 comdat {
  %2 = alloca ptr, align 8
  store ptr %0, ptr %2, align 8
  %3 = load ptr, ptr %2, align 8
  %4 = call noundef ptr @_ZN4llvm28ConstStrippingForwardingCastIPN5clang11DeclContextEKNS_12PointerUnionIJS3_PNS1_4Decl10MultipleDCEEEENS_8CastInfoIS3_S8_vEEE6doCastERS9_(ptr noundef nonnull align 8 dereferenceable(8) %3)
  ret ptr %4
}

; Function Attrs: mustprogress nounwind uwtable
define linkonce_odr hidden noundef zeroext i1 @_ZN4llvm3isaIPN5clang11DeclContextENS_12PointerUnionIJS3_PNS1_4Decl10MultipleDCEEEEEEbRKT0_(ptr noundef nonnull align 8 dereferenceable(8) %0) #0 comdat {
  %2 = alloca ptr, align 8
  store ptr %0, ptr %2, align 8
  %3 = load ptr, ptr %2, align 8
  %4 = call noundef zeroext i1 @_ZN4llvm28ConstStrippingForwardingCastIPN5clang11DeclContextEKNS_12PointerUnionIJS3_PNS1_4Decl10MultipleDCEEEENS_8CastInfoIS3_S8_vEEE10isPossibleERS9_(ptr noundef nonnull align 8 dereferenceable(8) %3)
  ret i1 %4
}

; Function Attrs: mustprogress nounwind uwtable
define linkonce_odr hidden noundef ptr @_ZN5clang25cast_convert_decl_contextINS_4DeclELb0EE4doitEPNS_11DeclContextE(ptr noundef %0) #0 comdat align 2 {
  %2 = alloca ptr, align 8
  store ptr %0, ptr %2, align 8
  %3 = load ptr, ptr %2, align 8
  %4 = call noundef ptr @_ZN5clang4Decl19castFromDeclContextEPKNS_11DeclContextE(ptr noundef %3)
  ret ptr %4
}

; Function Attrs: mustprogress nounwind uwtable
define linkonce_odr hidden noundef ptr @_ZNK4llvm12PointerUnionIJPN5clang11DeclContextEPNS1_4Decl10MultipleDCEEE3getIS6_EET_v(ptr noundef nonnull align 8 dereferenceable(8) %0) #0 comdat align 2 {
  %2 = alloca ptr, align 8
  store ptr %0, ptr %2, align 8
  %3 = load ptr, ptr %2, align 8
  %4 = call noundef ptr @_ZN4llvm4castIPN5clang4Decl10MultipleDCENS_12PointerUnionIJPNS1_11DeclContextES4_EEEEEDcRKT0_(ptr noundef nonnull align 8 dereferenceable(8) %3)
  ret ptr %4
}

; Function Attrs: mustprogress nounwind uwtable
define linkonce_odr hidden noundef ptr @_ZNK4llvm12PointerUnionIJPN5clang11DeclContextEPNS1_4Decl10MultipleDCEEE3getIS3_EET_v(ptr noundef nonnull align 8 dereferenceable(8) %0) #0 comdat align 2 {
  %2 = alloca ptr, align 8
  store ptr %0, ptr %2, align 8
  %3 = load ptr, ptr %2, align 8
  %4 = call noundef ptr @_ZN4llvm4castIPN5clang11DeclContextENS_12PointerUnionIJS3_PNS1_4Decl10MultipleDCEEEEEEDcRKT0_(ptr noundef nonnull align 8 dereferenceable(8) %3)
  ret ptr %4
}

; Function Attrs: mustprogress nounwind uwtable
define linkonce_odr hidden noundef zeroext i1 @_ZNK4llvm12PointerUnionIJPN5clang11DeclContextEPNS1_4Decl10MultipleDCEEE2isIS3_EEbv(ptr noundef nonnull align 8 dereferenceable(8) %0) #0 comdat align 2 {
  %2 = alloca ptr, align 8
  store ptr %0, ptr %2, align 8
  %3 = load ptr, ptr %2, align 8
  %4 = call noundef zeroext i1 @_ZN4llvm3isaIPN5clang11DeclContextENS_12PointerUnionIJS3_PNS1_4Decl10MultipleDCEEEEEEbRKT0_(ptr noundef nonnull align 8 dereferenceable(8) %3)
  ret i1 %4
}

; Function Attrs: mustprogress nounwind uwtable
define linkonce_odr hidden noundef ptr @_ZN4llvm16cast_convert_valIN5clang4DeclEPNS1_11DeclContextES4_E4doitES4_(ptr noundef %0) #0 comdat align 2 {
  %2 = alloca ptr, align 8
  store ptr %0, ptr %2, align 8
  %3 = load ptr, ptr %2, align 8
  %4 = call noundef ptr @_ZN5clang25cast_convert_decl_contextINS_4DeclELb0EE4doitEPNS_11DeclContextE(ptr noundef %3)
  ret ptr %4
}

; Function Attrs: mustprogress nounwind uwtable
define linkonce_odr hidden noundef ptr @_ZNK5clang4Decl13getMultipleDCEv(ptr noundef nonnull align 8 dereferenceable(33) %0) #0 comdat align 2 {
  %2 = alloca ptr, align 8
  store ptr %0, ptr %2, align 8
  %3 = load ptr, ptr %2, align 8
  %4 = getelementptr inbounds nuw %"class.clang::Decl", ptr %3, i32 0, i32 2
  %5 = call noundef ptr @_ZNK4llvm12PointerUnionIJPN5clang11DeclContextEPNS1_4Decl10MultipleDCEEE3getIS6_EET_v(ptr noundef nonnull align 8 dereferenceable(8) %4)
  ret ptr %5
}

; Function Attrs: mustprogress nounwind uwtable
define linkonce_odr hidden noundef ptr @_ZNK5clang4Decl13getSemanticDCEv(ptr noundef nonnull align 8 dereferenceable(33) %0) #0 comdat align 2 {
  %2 = alloca ptr, align 8
  store ptr %0, ptr %2, align 8
  %3 = load ptr, ptr %2, align 8
  %4 = getelementptr inbounds nuw %"class.clang::Decl", ptr %3, i32 0, i32 2
  %5 = call noundef ptr @_ZNK4llvm12PointerUnionIJPN5clang11DeclContextEPNS1_4Decl10MultipleDCEEE3getIS3_EET_v(ptr noundef nonnull align 8 dereferenceable(8) %4)
  ret ptr %5
}

; Function Attrs: mustprogress nounwind uwtable
define linkonce_odr hidden noundef zeroext i1 @_ZNK5clang4Decl10isInSemaDCEv(ptr noundef nonnull align 8 dereferenceable(33) %0) #0 comdat align 2 {
  %2 = alloca ptr, align 8
  store ptr %0, ptr %2, align 8
  %3 = load ptr, ptr %2, align 8
  %4 = getelementptr inbounds nuw %"class.clang::Decl", ptr %3, i32 0, i32 2
  %5 = call noundef zeroext i1 @_ZNK4llvm12PointerUnionIJPN5clang11DeclContextEPNS1_4Decl10MultipleDCEEE2isIS3_EEbv(ptr noundef nonnull align 8 dereferenceable(8) %4)
  ret i1 %5
}

; Function Attrs: mustprogress nounwind uwtable
define linkonce_odr hidden noundef ptr @_ZN4llvm8CastInfoIN5clang4DeclEPNS1_11DeclContextEvE6doCastERKS4_(ptr noundef nonnull align 8 dereferenceable(8) %0) #0 comdat align 2 {
  %2 = alloca ptr, align 8
  store ptr %0, ptr %2, align 8
  %3 = load ptr, ptr %2, align 8
  %4 = load ptr, ptr %3, align 8
  %5 = call noundef ptr @_ZN4llvm16cast_convert_valIN5clang4DeclEPNS1_11DeclContextES4_E4doitES4_(ptr noundef %4)
  ret ptr %5
}

; Function Attrs: mustprogress nounwind uwtable
define linkonce_odr hidden noundef ptr @_ZN5clang4Decl14getDeclContextEv(ptr noundef nonnull align 8 dereferenceable(33) %0) #0 comdat align 2 {
  %2 = alloca ptr, align 8
  %3 = alloca ptr, align 8
  store ptr %0, ptr %3, align 8
  %4 = load ptr, ptr %3, align 8
  %5 = call noundef zeroext i1 @_ZNK5clang4Decl10isInSemaDCEv(ptr noundef nonnull align 8 dereferenceable(33) %4)
  br i1 %5, label %6, label %8

6:                                                ; preds = %1
  %7 = call noundef ptr @_ZNK5clang4Decl13getSemanticDCEv(ptr noundef nonnull align 8 dereferenceable(33) %4)
  store ptr %7, ptr %2, align 8
  br label %12

8:                                                ; preds = %1
  %9 = call noundef ptr @_ZNK5clang4Decl13getMultipleDCEv(ptr noundef nonnull align 8 dereferenceable(33) %4)
  %10 = getelementptr inbounds nuw %"struct.clang::Decl::MultipleDC", ptr %9, i32 0, i32 0
  %11 = load ptr, ptr %10, align 8
  store ptr %11, ptr %2, align 8
  br label %12

12:                                               ; preds = %8, %6
  %13 = load ptr, ptr %2, align 8
  ret ptr %13
}

; Function Attrs: mustprogress nounwind uwtable
define linkonce_odr hidden noundef ptr @_ZN4llvm4castIN5clang4DeclENS1_11DeclContextEEEDcPT0_(ptr noundef %0) #0 comdat {
  %2 = alloca ptr, align 8
  store ptr %0, ptr %2, align 8
  %3 = call noundef ptr @_ZN4llvm8CastInfoIN5clang4DeclEPNS1_11DeclContextEvE6doCastERKS4_(ptr noundef nonnull align 8 dereferenceable(8) %2)
  ret ptr %3
}

; Function Attrs: mustprogress nounwind uwtable
define linkonce_odr hidden noundef ptr @_ZN5clang11DeclContext9getParentEv(ptr noundef nonnull align 8 dereferenceable(32) %0) #0 comdat align 2 {
  %2 = alloca ptr, align 8
  store ptr %0, ptr %2, align 8
  %3 = load ptr, ptr %2, align 8
  %4 = call noundef ptr @_ZN4llvm4castIN5clang4DeclENS1_11DeclContextEEEDcPT0_(ptr noundef %3)
  %5 = call noundef ptr @_ZN5clang4Decl14getDeclContextEv(ptr noundef nonnull align 8 dereferenceable(33) %4)
  ret ptr %5
}

; Function Attrs: mustprogress nounwind uwtable
define linkonce_odr hidden noundef i32 @_ZNK5clang11DeclContext11getDeclKindEv(ptr noundef nonnull align 8 dereferenceable(32) %0) #0 comdat align 2 {
  %2 = alloca ptr, align 8
  store ptr %0, ptr %2, align 8
  %3 = load ptr, ptr %2, align 8
  %4 = getelementptr inbounds nuw %"class.clang::DeclContext", ptr %3, i32 0, i32 1
  %5 = load i16, ptr %4, align 8
  %6 = and i16 %5, 127
  %7 = zext i16 %6 to i64
  %8 = trunc i64 %7 to i32
  ret i32 %8
}

; Function Attrs: mustprogress nounwind uwtable
define linkonce_odr hidden noundef ptr @_ZNK5clang11DeclContext9getParentEv(ptr noundef nonnull align 8 dereferenceable(32) %0) #0 comdat align 2 {
  %2 = alloca ptr, align 8
  store ptr %0, ptr %2, align 8
  %3 = load ptr, ptr %2, align 8
  %4 = call noundef ptr @_ZN5clang11DeclContext9getParentEv(ptr noundef nonnull align 8 dereferenceable(32) %3)
  ret ptr %4
}

; Function Attrs: mustprogress nounwind uwtable
define linkonce_odr hidden noundef zeroext i1 @_ZNK5clang11DeclContext11isNamespaceEv(ptr noundef nonnull align 8 dereferenceable(32) %0) #0 comdat align 2 {
  %2 = alloca ptr, align 8
  store ptr %0, ptr %2, align 8
  %3 = load ptr, ptr %2, align 8
  %4 = call noundef i32 @_ZNK5clang11DeclContext11getDeclKindEv(ptr noundef nonnull align 8 dereferenceable(32) %3)
  %5 = icmp eq i32 %4, 21
  ret i1 %5
}

; Function Attrs: mustprogress nounwind uwtable
define linkonce_odr hidden noundef zeroext i1 @_ZNK5clang11DeclContext17isTranslationUnitEv(ptr noundef nonnull align 8 dereferenceable(32) %0) #0 comdat align 2 {
  %2 = alloca ptr, align 8
  store ptr %0, ptr %2, align 8
  %3 = load ptr, ptr %2, align 8
  %4 = call noundef i32 @_ZNK5clang11DeclContext11getDeclKindEv(ptr noundef nonnull align 8 dereferenceable(32) %3)
  %5 = icmp eq i32 %4, 0
  ret i1 %5
}

; Function Attrs: mustprogress nounwind uwtable
define internal noundef zeroext i1 @_ZL24isDeclContextInNamespacePKN5clang11DeclContextE(ptr noundef %0) #0 {
  %2 = alloca i1, align 1
  %3 = alloca ptr, align 8
  store ptr %0, ptr %3, align 8
  br label %4

4:                                                ; preds = %12, %1
  %5 = load ptr, ptr %3, align 8
  %6 = call noundef zeroext i1 @_ZNK5clang11DeclContext17isTranslationUnitEv(ptr noundef nonnull align 8 dereferenceable(32) %5)
  %7 = xor i1 %6, true
  br i1 %7, label %8, label %15

8:                                                ; preds = %4
  %9 = load ptr, ptr %3, align 8
  %10 = call noundef zeroext i1 @_ZNK5clang11DeclContext11isNamespaceEv(ptr noundef nonnull align 8 dereferenceable(32) %9)
  br i1 %10, label %11, label %12

11:                                               ; preds = %8
  store i1 true, ptr %2, align 1
  br label %16

12:                                               ; preds = %8
  %13 = load ptr, ptr %3, align 8
  %14 = call noundef ptr @_ZNK5clang11DeclContext9getParentEv(ptr noundef nonnull align 8 dereferenceable(32) %13)
  store ptr %14, ptr %3, align 8
  br label %4, !llvm.loop !21

15:                                               ; preds = %4
  store i1 false, ptr %2, align 1
  br label %16

16:                                               ; preds = %15, %11
  %17 = load i1, ptr %2, align 1
  ret i1 %17
}